; Function Attrs: mustprogress nounwind uwtable
define dso_local void @_ZN4llvm14CombinerHelperC2ERNS_19GISelChangeObserverERNS_16MachineIRBuilderEbPNS_14GISelKnownBitsEPNS_20MachineDominatorTreeEPKNS_13LegalizerInfoE(ptr nocapture noundef nonnull align 8 dereferenceable(72) %0, ptr noundef nonnull align 8 dereferenceable(72) %1, ptr noundef nonnull align 8 dereferenceable(88) %2, i1 noundef zeroext %3, ptr noundef %4, ptr noundef %5, ptr noundef %6) unnamed_addr #0 align 2 {
  %8 = zext i1 %3 to i8
  store ptr %2, ptr %0, align 8
  %9 = getelementptr inbounds nuw i8, ptr %0, i64 8
  %10 = getelementptr inbounds nuw i8, ptr %2, i64 8
  %11 = load ptr, ptr %10, align 8
  %12 = getelementptr inbounds nuw i8, ptr %11, i64 32
  %13 = load ptr, ptr %12, align 8
  store ptr %13, ptr %9, align 8
  %14 = getelementptr inbounds nuw i8, ptr %0, i64 16
  store ptr %1, ptr %14, align 8
  %15 = getelementptr inbounds nuw i8, ptr %0, i64 24
  store ptr %4, ptr %15, align 8
  %16 = getelementptr inbounds nuw i8, ptr %0, i64 32
  store ptr %5, ptr %16, align 8
  %17 = getelementptr inbounds nuw i8, ptr %0, i64 40
  store i8 %8, ptr %17, align 8
  %18 = getelementptr inbounds nuw i8, ptr %0, i64 48
  store ptr %6, ptr %18, align 8
  %19 = getelementptr inbounds nuw i8, ptr %0, i64 56
  %20 = load ptr, ptr %10, align 8
  %21 = getelementptr inbounds nuw i8, ptr %20, i64 16
  %22 = load ptr, ptr %21, align 8
  %23 = load ptr, ptr %22, align 8
  %24 = getelementptr inbounds i8, ptr %23, i64 208
  %25 = load ptr, ptr %24, align 8
  %26 = tail call noundef ptr %25(ptr noundef nonnull align 8 dereferenceable(288) %22) #27
  store ptr %26, ptr %19, align 8
  %27 = getelementptr inbounds nuw i8, ptr %0, i64 64
  %28 = load ptr, ptr %0, align 8
  %29 = getelementptr inbounds nuw i8, ptr %28, i64 8
  %30 = load ptr, ptr %29, align 8
  %31 = getelementptr inbounds nuw i8, ptr %30, i64 16
  %32 = load ptr, ptr %31, align 8
  %33 = load ptr, ptr %32, align 8
  %34 = getelementptr inbounds i8, ptr %33, i64 200
  %35 = load ptr, ptr %34, align 8
  %36 = tail call noundef ptr %35(ptr noundef nonnull align 8 dereferenceable(288) %32) #27
  store ptr %36, ptr %27, align 8
  ret void
}